; ModuleID = '60/152.c'
source_filename = "60/152.c"
target datalayout = "e-m:e-p270:32:32-p271:32:32-p272:64:64-i64:64-f80:128-n8:16:32:64-S128"
target triple = "x86_64-pc-linux-gnu"

@.str = private unnamed_addr constant [3 x i8] c"%d\00", align 1
@.str.1 = private unnamed_addr constant [7 x i8] c"%d %d\0A\00", align 1
@.str.2 = private unnamed_addr constant [7 x i8] c"empty\0A\00", align 1

; Function Attrs: noinline nounwind uwtable
define dso_local void @main() #0 {
  %1 = alloca i32, align 4
  %2 = alloca i32, align 4
  %3 = alloca i32, align 4
  %4 = alloca i32, align 4
  %5 = alloca i32, align 4
  %6 = alloca i32, align 4
  store i32 0, i32* %5, align 4
  store i32 0, i32* %6, align 4
  %7 = call i32 (i8*, ...) @__isoc99_scanf(i8* getelementptr inbounds ([3 x i8], [3 x i8]* @.str, i64 0, i64 0), i32* %1)
  store i32 3, i32* %2, align 4
  br label %8

8:                                                ; preds = %54, %0
  %9 = load i32, i32* %2, align 4
  %10 = add nsw i32 %9, 2
  %11 = load i32, i32* %1, align 4
  %12 = icmp sle i32 %10, %11
  br i1 %12, label %13, label %57

13:                                               ; preds = %8
  store i32 0, i32* %5, align 4
  store i32 2, i32* %3, align 4
  br label %14

14:                                               ; preds = %25, %13
  %15 = load i32, i32* %3, align 4
  %16 = load i32, i32* %2, align 4
  %17 = icmp slt i32 %15, %16
  br i1 %17, label %18, label %28

18:                                               ; preds = %14
  %19 = load i32, i32* %2, align 4
  %20 = load i32, i32* %3, align 4
  %21 = srem i32 %19, %20
  %22 = icmp eq i32 %21, 0
  br i1 %22, label %23, label %24

23:                                               ; preds = %18
  store i32 1, i32* %5, align 4
  br label %28

24:                                               ; preds = %18
  br label %25

25:                                               ; preds = %24
  %26 = load i32, i32* %3, align 4
  %27 = add nsw i32 %26, 1
  store i32 %27, i32* %3, align 4
  br label %14

28:                                               ; preds = %23, %14
  store i32 2, i32* %4, align 4
  br label %29

29:                                               ; preds = %42, %28
  %30 = load i32, i32* %4, align 4
  %31 = load i32, i32* %2, align 4
  %32 = add nsw i32 %31, 2
  %33 = icmp slt i32 %30, %32
  br i1 %33, label %34, label %45

34:                                               ; preds = %29
  %35 = load i32, i32* %2, align 4
  %36 = add nsw i32 %35, 2
  %37 = load i32, i32* %4, align 4
  %38 = srem i32 %36, %37
  %39 = icmp eq i32 %38, 0
  br i1 %39, label %40, label %41

40:                                               ; preds = %34
  store i32 1, i32* %5, align 4
  br label %45

41:                                               ; preds = %34
  br label %42

42:                                               ; preds = %41
  %43 = load i32, i32* %4, align 4
  %44 = add nsw i32 %43, 1
  store i32 %44, i32* %4, align 4
  br label %29

45:                                               ; preds = %40, %29
  %46 = load i32, i32* %5, align 4
  %47 = icmp eq i32 %46, 1
  br i1 %47, label %48, label %49

48:                                               ; preds = %45
  br label %54

49:                                               ; preds = %45
  %50 = load i32, i32* %2, align 4
  %51 = load i32, i32* %2, align 4
  %52 = add nsw i32 %51, 2
  %53 = call i32 (i8*, ...) @printf(i8* getelementptr inbounds ([7 x i8], [7 x i8]* @.str.1, i64 0, i64 0), i32 %50, i32 %52)
  store i32 3, i32* %6, align 4
  br label %54

54:                                               ; preds = %49, %48
  %55 = load i32, i32* %2, align 4
  %56 = add nsw i32 %55, 1
  store i32 %56, i32* %2, align 4
  br label %8

57:                                               ; preds = %8
  %58 = load i32, i32* %6, align 4
  %59 = icmp ne i32 %58, 3
  br i1 %59, label %60, label %62

60:                                               ; preds = %57
  %61 = call i32 (i8*, ...) @printf(i8* getelementptr inbounds ([7 x i8], [7 x i8]* @.str.2, i64 0, i64 0))
  br label %62

62:                                               ; preds = %60, %57
  ret void
}

declare dso_local i32 @__isoc99_scanf(i8*, ...) #1

declare dso_local i32 @printf(i8*, ...) #1


!llvm.module.flags = !{!0}
!llvm.ident = !{!1}

!0 = !{i32 1, !"wchar_size", i32 4}
!1 = !{!"clang version 10.0.0-4ubuntu1 "}
