; ModuleID = 'source-C-CXX/59/152.c'
source_filename = "source-C-CXX/59/152.c"
target datalayout = "e-m:e-p270:32:32-p271:32:32-p272:64:64-i64:64-f80:128-n8:16:32:64-S128"
target triple = "x86_64-pc-linux-gnu"

@.str = private unnamed_addr constant [3 x i8] c"%d\00", align 1
@.str.1 = private unnamed_addr constant [7 x i8] c"%d %d\0A\00", align 1
@str = private unnamed_addr constant [6 x i8] c"empty\00", align 1

; Function Attrs: nofree nounwind sspstrong uwtable
define dso_local void @main() local_unnamed_addr #0 {
  %1 = alloca i32, align 4
  %2 = bitcast i32* %1 to i8*
  call void @llvm.lifetime.start.p0i8(i64 4, i8* nonnull %2) #5
  %3 = call i32 (i8*, ...) @__isoc99_scanf(i8* getelementptr inbounds ([3 x i8], [3 x i8]* @.str, i64 0, i64 0), i32* nonnull %1)
  %4 = load i32, i32* %1, align 4, !tbaa !5
  %5 = icmp slt i32 %4, 5
  br i1 %5, label %44, label %6

6:                                                ; preds = %0, %36
  %7 = phi i32 [ %37, %36 ], [ %4, %0 ]
  %8 = phi i32 [ %40, %36 ], [ 5, %0 ]
  %9 = phi i32 [ %38, %36 ], [ 0, %0 ]
  %10 = phi i32 [ %39, %36 ], [ 3, %0 ]
  %11 = call i32 @llvm.umax.i32(i32 %8, i32 3)
  %12 = and i32 %10, 1
  %13 = icmp eq i32 %12, 0
  br i1 %13, label %23, label %14

14:                                               ; preds = %6, %17
  %15 = phi i32 [ %20, %17 ], [ 3, %6 ]
  %16 = icmp eq i32 %15, %10
  br i1 %16, label %21, label %17, !llvm.loop !9

17:                                               ; preds = %14
  %18 = urem i32 %10, %15
  %19 = icmp eq i32 %18, 0
  %20 = add nuw nsw i32 %15, 1
  br i1 %19, label %21, label %14, !llvm.loop !9

21:                                               ; preds = %14, %17
  %22 = icmp ult i32 %15, %10
  br label %23

23:                                               ; preds = %21, %6
  %24 = phi i1 [ true, %6 ], [ %22, %21 ]
  br label %27

25:                                               ; preds = %27
  %26 = icmp eq i32 %31, %11
  br i1 %26, label %32, label %27, !llvm.loop !11

27:                                               ; preds = %23, %25
  %28 = phi i32 [ 2, %23 ], [ %31, %25 ]
  %29 = urem i32 %8, %28
  %30 = icmp eq i32 %29, 0
  %31 = add nuw i32 %28, 1
  br i1 %30, label %36, label %25

32:                                               ; preds = %25
  br i1 %24, label %36, label %33

33:                                               ; preds = %32
  %34 = call i32 (i8*, ...) @printf(i8* nonnull dereferenceable(1) getelementptr inbounds ([7 x i8], [7 x i8]* @.str.1, i64 0, i64 0), i32 %10, i32 %8)
  %35 = load i32, i32* %1, align 4, !tbaa !5
  br label %36

36:                                               ; preds = %27, %32, %33
  %37 = phi i32 [ %7, %32 ], [ %35, %33 ], [ %7, %27 ]
  %38 = phi i32 [ %9, %32 ], [ 3, %33 ], [ %9, %27 ]
  %39 = add nuw nsw i32 %10, 1
  %40 = add nuw i32 %8, 1
  %41 = icmp sgt i32 %40, %37
  br i1 %41, label %42, label %6, !llvm.loop !12

42:                                               ; preds = %36
  %43 = icmp eq i32 %38, 3
  br i1 %43, label %46, label %44

44:                                               ; preds = %0, %42
  %45 = call i32 @puts(i8* nonnull dereferenceable(1) getelementptr inbounds ([6 x i8], [6 x i8]* @str, i64 0, i64 0))
  br label %46

46:                                               ; preds = %44, %42
  call void @llvm.lifetime.end.p0i8(i64 4, i8* nonnull %2) #5
  ret void
}

; Function Attrs: argmemonly mustprogress nofree nosync nounwind willreturn
declare void @llvm.lifetime.start.p0i8(i64 immarg, i8* nocapture) #1

; Function Attrs: nofree nounwind
declare noundef i32 @__isoc99_scanf(i8* nocapture noundef readonly, ...) local_unnamed_addr #2

; Function Attrs: nofree nounwind
declare noundef i32 @printf(i8* nocapture noundef readonly, ...) local_unnamed_addr #2

; Function Attrs: argmemonly mustprogress nofree nosync nounwind willreturn
declare void @llvm.lifetime.end.p0i8(i64 immarg, i8* nocapture) #1

; Function Attrs: nofree nounwind
declare noundef i32 @puts(i8* nocapture noundef readonly) local_unnamed_addr #3

; Function Attrs: nofree nosync nounwind readnone speculatable willreturn
declare i32 @llvm.umax.i32(i32, i32) #4


!llvm.module.flags = !{!0, !1, !2, !3}
!llvm.ident = !{!4}

!0 = !{i32 1, !"wchar_size", i32 4}
!1 = !{i32 7, !"PIC Level", i32 2}
!2 = !{i32 7, !"PIE Level", i32 2}
!3 = !{i32 7, !"uwtable", i32 1}
!4 = !{!"clang version 13.0.0"}
!5 = !{!6, !6, i64 0}
!6 = !{!"int", !7, i64 0}
!7 = !{!"omnipotent char", !8, i64 0}
!8 = !{!"Simple C/C++ TBAA"}
!9 = distinct !{!9, !10}
!10 = !{!"llvm.loop.mustprogress"}
!11 = distinct !{!11, !10}
!12 = distinct !{!12, !10}
